target datalayout = "e-m:e-p270:32:32-p271:32:32-p272:64:64-i64:64-i128:128-f80:128-n8:16:32:64-S128"
target triple = "x86_64-pc-linux-gnu"

%struct.evp_cipher_info_st = type { ptr, [16 x i8] }
%struct.X509_info_st = type { ptr, ptr, ptr, %struct.evp_cipher_info_st, i32, ptr }
%struct.private_key_st = type { i32, ptr, ptr, ptr, i32, ptr, i32, %struct.evp_cipher_info_st }

@.str = private unnamed_addr constant [33 x i8] c"../openssl/crypto/pem/pem_info.c\00", align 1
@__func__.PEM_X509_INFO_write_bio = private unnamed_addr constant [24 x i8] c"PEM_X509_INFO_write_bio\00", align 1
@.str.7 = private unnamed_addr constant [16 x i8] c"RSA PRIVATE KEY\00", align 1

; Function Attrs: nounwind uwtable
define i32 @PEM_X509_INFO_write_bio(ptr noundef %0, ptr noundef %1, ptr noundef %2, ptr noundef %3, i32 noundef %4, ptr noundef %5, ptr noundef %6) #0 {
  %8 = alloca ptr, align 8
  %9 = alloca ptr, align 8
  %10 = alloca ptr, align 8
  %11 = alloca ptr, align 8
  %12 = alloca i32, align 4
  %13 = alloca ptr, align 8
  %14 = alloca ptr, align 8
  %15 = alloca i32, align 4
  %16 = alloca i32, align 4
  %17 = alloca ptr, align 8
  %18 = alloca ptr, align 8
  %19 = alloca [1024 x i8], align 16
  %20 = alloca ptr, align 8
  store ptr %0, ptr %8, align 8, !tbaa !15
  store ptr %1, ptr %9, align 8, !tbaa !17
  store ptr %2, ptr %10, align 8, !tbaa !37
  store ptr %3, ptr %11, align 8, !tbaa !13
  store i32 %4, ptr %12, align 4, !tbaa !21
  store ptr %5, ptr %13, align 8, !tbaa !10
  store ptr %6, ptr %14, align 8, !tbaa !10
  call void @llvm.lifetime.start.p0(i64 4, ptr %15) #5
  call void @llvm.lifetime.start.p0(i64 4, ptr %16) #5
  store i32 0, ptr %16, align 4, !tbaa !21
  call void @llvm.lifetime.start.p0(i64 8, ptr %17) #5
  store ptr null, ptr %17, align 8, !tbaa !13
  call void @llvm.lifetime.start.p0(i64 8, ptr %18) #5
  store ptr null, ptr %18, align 8, !tbaa !13
  call void @llvm.lifetime.start.p0(i64 1024, ptr %19) #5
  call void @llvm.lifetime.start.p0(i64 8, ptr %20) #5
  store ptr null, ptr %20, align 8, !tbaa !13
  %21 = load ptr, ptr %10, align 8, !tbaa !37
  %22 = icmp ne ptr %21, null
  br i1 %22, label %23, label %41

23:                                               ; preds = %7
  %24 = load ptr, ptr %10, align 8, !tbaa !37
  %25 = call ptr @EVP_CIPHER_get0_name(ptr noundef %24)
  store ptr %25, ptr %18, align 8, !tbaa !13
  %26 = load ptr, ptr %18, align 8, !tbaa !13
  %27 = icmp eq ptr %26, null
  br i1 %27, label %39, label %28

28:                                               ; preds = %23
  %29 = load ptr, ptr %18, align 8, !tbaa !13
  %30 = call i64 @strlen(ptr noundef %29) #6
  %31 = add i64 %30, 23
  %32 = load ptr, ptr %10, align 8, !tbaa !37
  %33 = call i32 @EVP_CIPHER_get_iv_length(ptr noundef %32)
  %34 = mul nsw i32 2, %33
  %35 = sext i32 %34 to i64
  %36 = add i64 %31, %35
  %37 = add i64 %36, 13
  %38 = icmp ugt i64 %37, 1024
  br i1 %38, label %39, label %40

39:                                               ; preds = %28, %23
  call void @ERR_new()
  call void @ERR_set_debug(ptr noundef @.str, i32 noundef 243, ptr noundef @__func__.PEM_X509_INFO_write_bio)
  call void (i32, i32, ptr, ...) @ERR_set_error(i32 noundef 9, i32 noundef 113, ptr noundef null)
  br label %129

40:                                               ; preds = %28
  br label %41

41:                                               ; preds = %40, %7
  %42 = load ptr, ptr %9, align 8, !tbaa !17
  %43 = getelementptr inbounds nuw %struct.X509_info_st, ptr %42, i32 0, i32 2
  %44 = load ptr, ptr %43, align 8, !tbaa !31
  %45 = icmp ne ptr %44, null
  br i1 %45, label %46, label %115

46:                                               ; preds = %41
  %47 = load ptr, ptr %9, align 8, !tbaa !17
  %48 = getelementptr inbounds nuw %struct.X509_info_st, ptr %47, i32 0, i32 5
  %49 = load ptr, ptr %48, align 8, !tbaa !33
  %50 = icmp ne ptr %49, null
  br i1 %50, label %51, label %97

51:                                               ; preds = %46
  %52 = load ptr, ptr %9, align 8, !tbaa !17
  %53 = getelementptr inbounds nuw %struct.X509_info_st, ptr %52, i32 0, i32 4
  %54 = load i32, ptr %53, align 8, !tbaa !34
  %55 = icmp sgt i32 %54, 0
  br i1 %55, label %56, label %97

56:                                               ; preds = %51
  %57 = load ptr, ptr %10, align 8, !tbaa !37
  %58 = icmp eq ptr %57, null
  br i1 %58, label %59, label %60

59:                                               ; preds = %56
  call void @ERR_new()
  call void @ERR_set_debug(ptr noundef @.str, i32 noundef 256, ptr noundef @__func__.PEM_X509_INFO_write_bio)
  call void (i32, i32, ptr, ...) @ERR_set_error(i32 noundef 9, i32 noundef 127, ptr noundef null)
  br label %129

60:                                               ; preds = %56
  %61 = load ptr, ptr %9, align 8, !tbaa !17
  %62 = getelementptr inbounds nuw %struct.X509_info_st, ptr %61, i32 0, i32 3
  %63 = getelementptr inbounds nuw %struct.evp_cipher_info_st, ptr %62, i32 0, i32 1
  %64 = getelementptr inbounds [16 x i8], ptr %63, i64 0, i64 0
  store ptr %64, ptr %20, align 8, !tbaa !13
  %65 = load ptr, ptr %9, align 8, !tbaa !17
  %66 = getelementptr inbounds nuw %struct.X509_info_st, ptr %65, i32 0, i32 5
  %67 = load ptr, ptr %66, align 8, !tbaa !33
  store ptr %67, ptr %17, align 8, !tbaa !13
  %68 = load ptr, ptr %9, align 8, !tbaa !17
  %69 = getelementptr inbounds nuw %struct.X509_info_st, ptr %68, i32 0, i32 4
  %70 = load i32, ptr %69, align 8, !tbaa !34
  store i32 %70, ptr %15, align 4, !tbaa !21
  %71 = load ptr, ptr %9, align 8, !tbaa !17
  %72 = getelementptr inbounds nuw %struct.X509_info_st, ptr %71, i32 0, i32 3
  %73 = getelementptr inbounds nuw %struct.evp_cipher_info_st, ptr %72, i32 0, i32 0
  %74 = load ptr, ptr %73, align 8, !tbaa !38
  %75 = call ptr @EVP_CIPHER_get0_name(ptr noundef %74)
  store ptr %75, ptr %18, align 8, !tbaa !13
  %76 = load ptr, ptr %18, align 8, !tbaa !13
  %77 = icmp eq ptr %76, null
  br i1 %77, label %78, label %79

78:                                               ; preds = %60
  call void @ERR_new()
  call void @ERR_set_debug(ptr noundef @.str, i32 noundef 272, ptr noundef @__func__.PEM_X509_INFO_write_bio)
  call void (i32, i32, ptr, ...) @ERR_set_error(i32 noundef 9, i32 noundef 113, ptr noundef null)
  br label %129

79:                                               ; preds = %60
  %80 = getelementptr inbounds [1024 x i8], ptr %19, i64 0, i64 0
  store i8 0, ptr %80, align 16, !tbaa !32
  %81 = getelementptr inbounds [1024 x i8], ptr %19, i64 0, i64 0
  call void @PEM_proc_type(ptr noundef %81, i32 noundef 10)
  %82 = getelementptr inbounds [1024 x i8], ptr %19, i64 0, i64 0
  %83 = load ptr, ptr %18, align 8, !tbaa !13
  %84 = load ptr, ptr %10, align 8, !tbaa !37
  %85 = call i32 @EVP_CIPHER_get_iv_length(ptr noundef %84)
  %86 = load ptr, ptr %20, align 8, !tbaa !13
  call void @PEM_dek_info(ptr noundef %82, ptr noundef %83, i32 noundef %85, ptr noundef %86)
  %87 = load ptr, ptr %8, align 8, !tbaa !15
  %88 = getelementptr inbounds [1024 x i8], ptr %19, i64 0, i64 0
  %89 = load ptr, ptr %17, align 8, !tbaa !13
  %90 = load i32, ptr %15, align 4, !tbaa !21
  %91 = sext i32 %90 to i64
  %92 = call i32 @PEM_write_bio(ptr noundef %87, ptr noundef @.str.7, ptr noundef %88, ptr noundef %89, i64 noundef %91)
  store i32 %92, ptr %15, align 4, !tbaa !21
  %93 = load i32, ptr %15, align 4, !tbaa !21
  %94 = icmp sle i32 %93, 0
  br i1 %94, label %95, label %96

95:                                               ; preds = %79
  br label %129

96:                                               ; preds = %79
  br label %114

97:                                               ; preds = %51, %46
  %98 = load ptr, ptr %8, align 8, !tbaa !15
  %99 = load ptr, ptr %9, align 8, !tbaa !17
  %100 = getelementptr inbounds nuw %struct.X509_info_st, ptr %99, i32 0, i32 2
  %101 = load ptr, ptr %100, align 8, !tbaa !31
  %102 = getelementptr inbounds nuw %struct.private_key_st, ptr %101, i32 0, i32 3
  %103 = load ptr, ptr %102, align 8, !tbaa !39
  %104 = call ptr @EVP_PKEY_get0_RSA(ptr noundef %103)
  %105 = load ptr, ptr %10, align 8, !tbaa !37
  %106 = load ptr, ptr %11, align 8, !tbaa !13
  %107 = load i32, ptr %12, align 4, !tbaa !21
  %108 = load ptr, ptr %13, align 8, !tbaa !10
  %109 = load ptr, ptr %14, align 8, !tbaa !10
  %110 = call i32 @PEM_write_bio_RSAPrivateKey(ptr noundef %98, ptr noundef %104, ptr noundef %105, ptr noundef %106, i32 noundef %107, ptr noundef %108, ptr noundef %109)
  %111 = icmp sle i32 %110, 0
  br i1 %111, label %112, label %113

112:                                              ; preds = %97
  br label %129

113:                                              ; preds = %97
  br label %114

114:                                              ; preds = %113, %96
  br label %115

115:                                              ; preds = %114, %41
  %116 = load ptr, ptr %9, align 8, !tbaa !17
  %117 = getelementptr inbounds nuw %struct.X509_info_st, ptr %116, i32 0, i32 0
  %118 = load ptr, ptr %117, align 8, !tbaa !23
  %119 = icmp ne ptr %118, null
  br i1 %119, label %120, label %128

120:                                              ; preds = %115
  %121 = load ptr, ptr %8, align 8, !tbaa !15
  %122 = load ptr, ptr %9, align 8, !tbaa !17
  %123 = getelementptr inbounds nuw %struct.X509_info_st, ptr %122, i32 0, i32 0
  %124 = load ptr, ptr %123, align 8, !tbaa !23
  %125 = call i32 @PEM_write_bio_X509(ptr noundef %121, ptr noundef %124)
  %126 = icmp sle i32 %125, 0
  br i1 %126, label %127, label %128

127:                                              ; preds = %120
  br label %129

128:                                              ; preds = %120, %115
  store i32 1, ptr %16, align 4, !tbaa !21
  br label %129

129:                                              ; preds = %128, %127, %112, %95, %78, %59, %39
  %130 = getelementptr inbounds [1024 x i8], ptr %19, i64 0, i64 0
  call void @OPENSSL_cleanse(ptr noundef %130, i64 noundef 1024)
  %131 = load i32, ptr %16, align 4, !tbaa !21
  call void @llvm.lifetime.end.p0(i64 8, ptr %20) #5
  call void @llvm.lifetime.end.p0(i64 1024, ptr %19) #5
  call void @llvm.lifetime.end.p0(i64 8, ptr %18) #5
  call void @llvm.lifetime.end.p0(i64 8, ptr %17) #5
  call void @llvm.lifetime.end.p0(i64 4, ptr %16) #5
  call void @llvm.lifetime.end.p0(i64 4, ptr %15) #5
  ret i32 %131
}