; Function Attrs: nounwind uwtable
define range(i32 0, 2) i32 @PEM_X509_INFO_write_bio(ptr noundef %0, ptr noundef %1, ptr noundef %2, ptr noundef %3, i32 noundef %4, ptr noundef %5, ptr noundef %6) local_unnamed_addr #0 {
  %8 = alloca [1024 x i8], align 16
  call void @llvm.lifetime.start.p0(i64 1024, ptr nonnull %8) #4
  %.not = icmp eq ptr %2, null
  br i1 %.not, label %21, label %9

9:                                                ; preds = %7
  %10 = tail call ptr @EVP_CIPHER_get0_name(ptr noundef nonnull %2) #4
  %11 = icmp eq ptr %10, null
  br i1 %11, label %20, label %12

12:                                               ; preds = %9
  %13 = tail call i64 @strlen(ptr noundef nonnull dereferenceable(1) %10) #5
  %14 = tail call i32 @EVP_CIPHER_get_iv_length(ptr noundef nonnull %2) #4
  %15 = shl nsw i32 %14, 1
  %16 = sext i32 %15 to i64
  %17 = add i64 %13, -989
  %18 = add i64 %17, %16
  %19 = icmp ult i64 %18, -1025
  br i1 %19, label %20, label %21

20:                                               ; preds = %12, %9
  tail call void @ERR_new() #4
  tail call void @ERR_set_debug(ptr noundef nonnull @.str, i32 noundef 243, ptr noundef nonnull @__func__.PEM_X509_INFO_write_bio) #4
  tail call void (i32, i32, ptr, ...) @ERR_set_error(i32 noundef 9, i32 noundef 113, ptr noundef null) #4
  br label %57

21:                                               ; preds = %12, %7
  %22 = getelementptr inbounds nuw i8, ptr %1, i64 16
  %23 = load ptr, ptr %22, align 8, !tbaa !17
  %.not37 = icmp eq ptr %23, null
  br i1 %.not37, label %51, label %24

24:                                               ; preds = %21
  %25 = getelementptr inbounds nuw i8, ptr %1, i64 56
  %26 = load ptr, ptr %25, align 8, !tbaa !19
  %.not38 = icmp eq ptr %26, null
  br i1 %.not38, label %45, label %27

27:                                               ; preds = %24
  %28 = getelementptr inbounds nuw i8, ptr %1, i64 48
  %29 = load i32, ptr %28, align 8, !tbaa !20
  %30 = icmp sgt i32 %29, 0
  br i1 %30, label %31, label %45

31:                                               ; preds = %27
  br i1 %.not, label %32, label %33

32:                                               ; preds = %31
  tail call void @ERR_new() #4
  tail call void @ERR_set_debug(ptr noundef nonnull @.str, i32 noundef 256, ptr noundef nonnull @__func__.PEM_X509_INFO_write_bio) #4
  tail call void (i32, i32, ptr, ...) @ERR_set_error(i32 noundef 9, i32 noundef 127, ptr noundef null) #4
  br label %57

33:                                               ; preds = %31
  %34 = getelementptr inbounds nuw i8, ptr %1, i64 24
  %35 = load ptr, ptr %34, align 8, !tbaa !26
  %36 = tail call ptr @EVP_CIPHER_get0_name(ptr noundef %35) #4
  %37 = icmp eq ptr %36, null
  br i1 %37, label %38, label %39

38:                                               ; preds = %33
  tail call void @ERR_new() #4
  tail call void @ERR_set_debug(ptr noundef nonnull @.str, i32 noundef 272, ptr noundef nonnull @__func__.PEM_X509_INFO_write_bio) #4
  tail call void (i32, i32, ptr, ...) @ERR_set_error(i32 noundef 9, i32 noundef 113, ptr noundef null) #4
  br label %57

39:                                               ; preds = %33
  %40 = getelementptr inbounds nuw i8, ptr %1, i64 32
  store i8 0, ptr %8, align 16, !tbaa !18
  call void @PEM_proc_type(ptr noundef nonnull %8, i32 noundef 10) #4
  %41 = call i32 @EVP_CIPHER_get_iv_length(ptr noundef nonnull %2) #4
  call void @PEM_dek_info(ptr noundef nonnull %8, ptr noundef nonnull %36, i32 noundef %41, ptr noundef nonnull %40) #4
  %42 = zext nneg i32 %29 to i64
  %43 = call i32 @PEM_write_bio(ptr noundef %0, ptr noundef nonnull @.str.7, ptr noundef nonnull %8, ptr noundef nonnull %26, i64 noundef %42) #4
  %44 = icmp slt i32 %43, 1
  br i1 %44, label %57, label %51

45:                                               ; preds = %27, %24
  %46 = getelementptr inbounds nuw i8, ptr %23, i64 24
  %47 = load ptr, ptr %46, align 8, !tbaa !27
  %48 = tail call ptr @EVP_PKEY_get0_RSA(ptr noundef %47) #4
  %49 = tail call i32 @PEM_write_bio_RSAPrivateKey(ptr noundef %0, ptr noundef %48, ptr noundef %2, ptr noundef %3, i32 noundef %4, ptr noundef %5, ptr noundef %6) #4
  %50 = icmp slt i32 %49, 1
  br i1 %50, label %57, label %51

51:                                               ; preds = %39, %45, %21
  %52 = load ptr, ptr %1, align 8, !tbaa !8
  %.not39 = icmp eq ptr %52, null
  br i1 %.not39, label %56, label %53

53:                                               ; preds = %51
  %54 = call i32 @PEM_write_bio_X509(ptr noundef %0, ptr noundef nonnull %52) #4
  %55 = icmp slt i32 %54, 1
  br i1 %55, label %57, label %56

56:                                               ; preds = %53, %51
  br label %57

57:                                               ; preds = %53, %45, %39, %56, %38, %32, %20
  %.0 = phi i32 [ 0, %20 ], [ 0, %32 ], [ 0, %38 ], [ 0, %39 ], [ 0, %53 ], [ 1, %56 ], [ 0, %45 ]
  call void @OPENSSL_cleanse(ptr noundef nonnull %8, i64 noundef 1024) #4
  call void @llvm.lifetime.end.p0(i64 1024, ptr nonnull %8) #4
  ret i32 %.0
}